
Discarded input sections

 .comment       0x0000000000000000       0x23 main.o
 .note.GNU-stack
                0x0000000000000000        0x0 main.o
 .comment       0x0000000000000000       0x23 print.o
 .note.GNU-stack
                0x0000000000000000        0x0 print.o
 .comment       0x0000000000000000       0x23 mmap.o
 .note.GNU-stack
                0x0000000000000000        0x0 mmap.o
 .comment       0x0000000000000000       0x23 a20.o
 .note.GNU-stack
                0x0000000000000000        0x0 a20.o
 .comment       0x0000000000000000       0x23 alloc.o
 .note.GNU-stack
                0x0000000000000000        0x0 alloc.o
 .comment       0x0000000000000000       0x23 mem.o
 .note.GNU-stack
                0x0000000000000000        0x0 mem.o
 .comment       0x0000000000000000       0x23 math64.o
 .note.GNU-stack
                0x0000000000000000        0x0 math64.o
 .comment       0x0000000000000000       0x23 bios_disk.o
 .note.GNU-stack
                0x0000000000000000        0x0 bios_disk.o

Memory Configuration

Name             Origin             Length             Attributes
*default*        0x0000000000000000 0xffffffffffffffff

Linker script and memory map

                0x0000000000000000                . = 0x0

.sig            0x0000000000000000        0xc
                0x0000000000000000        0x2 SHORT 0x6853
                0x0000000000000002        0x2 SHORT 0x766f
                0x0000000000000004        0x2 SHORT 0x7453
                0x0000000000000006        0x2 SHORT 0x6761
                0x0000000000000008        0x2 SHORT 0x3165
                0x000000000000000a        0x2 SHORT 0x352e
                0x0000000000000100                . = 0x100

.text           0x0000000000000100      0xe00
                0x0000000000000100                _text_start = .
 *(.text)
 .text          0x0000000000000100       0x11 entry.o
                0x0000000000000100                main
 *fill*         0x0000000000000111        0x3 00
 .text          0x0000000000000114       0x51 main.o
                0x0000000000000114                halt
                0x000000000000012a                cmain
 *fill*         0x0000000000000165        0x3 00
 .text          0x0000000000000168      0x47c print.o
                0x00000000000001db                cls
                0x000000000000020c                putc
                0x0000000000000269                putndecu
                0x0000000000000334                putndec
                0x000000000000037d                putnhex
                0x00000000000003e9                puts
                0x0000000000000428                printf
 .text          0x00000000000005e4      0x11f mmap.o
                0x0000000000000630                read_mmap
 *fill*         0x0000000000000703        0x1 00
 .text          0x0000000000000704      0x121 a20.o
                0x0000000000000751                check_a20_line
                0x00000000000007bf                enable_a20_line
 *fill*         0x0000000000000825        0x3 00
 .text          0x0000000000000828       0xa7 alloc.o
                0x0000000000000828                alloc
                0x000000000000083d                zalloc
                0x0000000000000871                zalloc_align
 *fill*         0x00000000000008cf        0x1 00
 .text          0x00000000000008d0       0x63 mem.o
                0x00000000000008d0                memcpy
                0x000000000000090f                memset
 *fill*         0x0000000000000933        0x1 00
 .text          0x0000000000000934      0x31d math64.o
                0x0000000000000be0                __umoddi3
                0x0000000000000c1c                __udivdi3
 *fill*         0x0000000000000c51        0x3 00
 .text          0x0000000000000c54      0x2ac bios_disk.o
                0x0000000000000c99                disk_read_sector
                0x0000000000000d0a                bytes_per_sector
                0x0000000000000d68                disk_read
                0x0000000000000f00                _text_end = .

.rodata.str1.1  0x0000000000000f00       0xf0
 .rodata.str1.1
                0x0000000000000f00       0x1f main.o
 .rodata.str1.1
                0x0000000000000f1f       0x86 mmap.o
 .rodata.str1.1
                0x0000000000000fa5       0x4b a20.o

.data           0x0000000000000ff0       0x50
                0x0000000000000ff0                _data_start = .
 *(.bss)
 .bss           0x0000000000000ff0        0x0 entry.o
 .bss           0x0000000000000ff0        0x0 main.o
 .bss           0x0000000000000ff0        0x2 print.o
 *fill*         0x0000000000000ff2        0x2 00
 .bss           0x0000000000000ff4        0x8 mmap.o
                0x0000000000000ff4                mem
 .bss           0x0000000000000ffc        0x0 a20.o
 .bss           0x0000000000000ffc        0x0 alloc.o
 .bss           0x0000000000000ffc        0x0 mem.o
 .bss           0x0000000000000ffc        0x0 math64.o
 .bss           0x0000000000000ffc       0x18 bios_disk.o
 *(.bss*)
 *(.data)
 .data          0x0000000000001014        0x0 entry.o
 .data          0x0000000000001014        0x0 main.o
 .data          0x0000000000001014        0x0 print.o
 .data          0x0000000000001014        0x0 mmap.o
 .data          0x0000000000001014        0x0 a20.o
 .data          0x0000000000001014        0x0 alloc.o
 .data          0x0000000000001014        0x0 mem.o
 .data          0x0000000000001014        0x0 math64.o
 .data          0x0000000000001014        0x0 bios_disk.o
 *(.rodata)
 .rodata        0x0000000000001014       0x11 print.o
 *fill*         0x0000000000001025        0x3 00
 .rodata        0x0000000000001028       0x18 mmap.o
 *(.COMMON)
                0x0000000000001040                _data_end = .

.heap           0x0000000000001040        0x4
                0x0000000000001040                _heap_start = .
                0x0000000000001040        0x2 SHORT 0x1044 (. + 0x4)
                0x0000000000001042        0x2 SHORT 0x0

/DISCARD/
 *(.note*)
 *(.iplt*)
 *(.igot*)
 *(.rel*)
 *(.comment)
LOAD entry.o
LOAD main.o
LOAD print.o
LOAD mmap.o
LOAD a20.o
LOAD alloc.o
LOAD mem.o
LOAD math64.o
LOAD bios_disk.o
OUTPUT(stage1.5.elf elf32-i386)
